Certificate:
    Data:
        Version: 3 (0x2)
        Serial Number: 1 (0x1)
    Signature Algorithm: sha256WithRSAEncryption
        Issuer: C=US, ST=CA, L=SanFrancisco, O=Fort-Funston, OU=MyOrganizationalUnit, CN=Fort-Funston CA/name=EasyRSA/emailAddress=me@myhost.mydomain
        Validity
            Not Before: Nov 30 14:30:54 2020 GMT
            Not After : Nov 28 14:30:54 2030 GMT
        Subject: C=US, ST=CA, L=SanFrancisco, O=Fort-Funston, OU=MyOrganizationalUnit, CN=server/name=EasyRSA/emailAddress=me@myhost.mydomain
        Subject Public Key Info:
            Public Key Algorithm: rsaEncryption
                Public-Key: (2048 bit)
                Modulus:
                    00:aa:98:93:33:0b:c2:20:9b:20:be:3f:63:3d:5c:
                    b5:b7:1a:c5:82:27:29:60:00:58:09:0f:e6:e3:fa:
                    be:22:c7:cd:5a:7c:68:6f:c0:95:49:e7:30:9a:9c:
                    ea:a9:2f:c3:3e:ca:b4:f0:88:27:16:06:95:5f:d7:
                    07:21:1d:e5:b8:dd:c6:06:d3:b2:f0:91:ca:64:d9:
                    e8:ce:d0:37:f1:67:46:7c:1f:98:17:9c:1a:90:60:
                    df:b1:38:ed:7c:14:68:b6:a3:2d:45:c1:7b:fe:93:
                    45:ff:5d:72:8c:4a:dc:95:ac:d0:ab:39:81:89:2b:
                    94:8e:0d:84:ec:b6:e1:00:23:0b:f9:6a:d6:b7:df:
                    3c:d5:c0:23:7e:2e:61:ce:b6:7b:66:83:49:13:fe:
                    a6:db:62:f0:0c:2b:a5:ff:5f:57:62:dd:94:1a:68:
                    95:4d:4f:1c:55:3b:b1:29:cb:aa:dc:cd:57:bc:ca:
                    45:25:7a:aa:ac:64:07:19:50:86:2c:63:43:f5:48:
                    8f:c3:13:bf:ac:3c:f6:0c:b1:0d:6f:d6:a9:cf:74:
                    44:ee:b1:15:63:ea:3b:65:31:83:d0:5f:c6:18:98:
                    69:1c:21:3b:37:38:81:96:d7:68:eb:a7:c1:25:18:
                    72:c4:73:f2:84:dc:ac:66:2a:71:1d:40:ed:26:47:
                    86:0b
                Exponent: 65537 (0x10001)
        X509v3 extensions:
            X509v3 Basic Constraints: 
                CA:FALSE
            Netscape Cert Type: 
                SSL Server
            Netscape Comment: 
                Easy-RSA Generated Server Certificate
            X509v3 Subject Key Identifier: 
                68:FA:87:56:F9:B5:9A:6F:46:D7:77:8B:51:76:9F:8B:55:EC:BE:80
            X509v3 Authority Key Identifier: 
                keyid:31:FB:B3:98:31:A8:54:75:9D:58:BD:40:06:3D:BE:E1:E0:86:91:90
                DirName:/C=US/ST=CA/L=SanFrancisco/O=Fort-Funston/OU=MyOrganizationalUnit/CN=Fort-Funston CA/name=EasyRSA/emailAddress=me@myhost.mydomain
                serial:C6:AB:6C:AB:3C:FB:D0:F5

            X509v3 Extended Key Usage: 
                TLS Web Server Authentication
            X509v3 Key Usage: 
                Digital Signature, Key Encipherment
    Signature Algorithm: sha256WithRSAEncryption
         04:56:13:51:6a:f5:b0:a9:7d:ba:69:bd:68:4b:62:0e:96:75:
         6f:b3:52:5d:5c:99:24:d0:d7:c4:ad:ca:0f:05:16:e0:4a:02:
         41:07:a4:c1:88:b4:3b:4e:dc:3f:23:5d:1a:d1:08:3f:7f:5b:
         dd:ee:16:c2:b0:83:9a:86:09:e1:b8:60:18:68:29:fd:a9:31:
         0a:cd:8c:a7:78:fe:95:4d:39:ab:f9:51:f8:ec:a1:66:4b:00:
         fb:99:7d:da:19:4b:05:3b:ae:a9:e3:4e:fc:6d:21:04:9d:61:
         06:48:d1:1b:64:ce:da:73:f0:e9:78:2b:e9:d1:55:87:83:e3:
         84:38:97:ae:3d:73:63:5b:63:cd:d1:a6:36:db:83:9f:36:01:
         93:d9:41:6b:98:f9:0e:6d:80:f5:1f:ec:c8:5e:09:4f:5e:d6:
         bf:fa:9f:75:86:61:ef:71:51:be:1a:da:ef:6a:10:fd:6c:bd:
         f2:7f:ea:e5:bf:84:e9:ba:2c:d7:af:07:3f:cc:ad:ec:a1:8b:
         14:dd:8e:c6:fb:9e:4a:3a:c3:dd:b3:3b:41:a4:23:6e:24:21:
         84:d0:a8:7c:93:08:ab:67:6d:ed:98:08:52:10:0e:7b:5f:f0:
         99:82:a7:ed:15:87:ee:89:d6:9f:64:86:bf:21:79:ae:86:7f:
         b5:24:dd:8f
-----BEGIN CERTIFICATE-----
MIIFaTCCBFGgAwIBAgIBATANBgkqhkiG9w0BAQsFADCBtjELMAkGA1UEBhMCVVMx
CzAJBgNVBAgTAkNBMRUwEwYDVQQHEwxTYW5GcmFuY2lzY28xFTATBgNVBAoTDEZv
cnQtRnVuc3RvbjEdMBsGA1UECxMUTXlPcmdhbml6YXRpb25hbFVuaXQxGDAWBgNV
BAMTD0ZvcnQtRnVuc3RvbiBDQTEQMA4GA1UEKRMHRWFzeVJTQTEhMB8GCSqGSIb3
DQEJARYSbWVAbXlob3N0Lm15ZG9tYWluMB4XDTIwMTEzMDE0MzA1NFoXDTMwMTEy
ODE0MzA1NFowga0xCzAJBgNVBAYTAlVTMQswCQYDVQQIEwJDQTEVMBMGA1UEBxMM
U2FuRnJhbmNpc2NvMRUwEwYDVQQKEwxGb3J0LUZ1bnN0b24xHTAbBgNVBAsTFE15
T3JnYW5pemF0aW9uYWxVbml0MQ8wDQYDVQQDEwZzZXJ2ZXIxEDAOBgNVBCkTB0Vh
c3lSU0ExITAfBgkqhkiG9w0BCQEWEm1lQG15aG9zdC5teWRvbWFpbjCCASIwDQYJ
KoZIhvcNAQEBBQADggEPADCCAQoCggEBAKqYkzMLwiCbIL4/Yz1ctbcaxYInKWAA
WAkP5uP6viLHzVp8aG/AlUnnMJqc6qkvwz7KtPCIJxYGlV/XByEd5bjdxgbTsvCR
ymTZ6M7QN/FnRnwfmBecGpBg37E47XwUaLajLUXBe/6TRf9dcoxK3JWs0Ks5gYkr
lI4NhOy24QAjC/lq1rffPNXAI34uYc62e2aDSRP+ptti8Awrpf9fV2LdlBpolU1P
HFU7sSnLqtzNV7zKRSV6qqxkBxlQhixjQ/VIj8MTv6w89gyxDW/Wqc90RO6xFWPq
O2Uxg9BfxhiYaRwhOzc4gZbXaOunwSUYcsRz8oTcrGYqcR1A7SZHhgsCAwEAAaOC
AYcwggGDMAkGA1UdEwQCMAAwEQYJYIZIAYb4QgEBBAQDAgZAMDQGCWCGSAGG+EIB
DQQnFiVFYXN5LVJTQSBHZW5lcmF0ZWQgU2VydmVyIENlcnRpZmljYXRlMB0GA1Ud
DgQWBBRo+odW+bWab0bXd4tRdp+LVey+gDCB6wYDVR0jBIHjMIHggBQx+7OYMahU
dZ1YvUAGPb7h4IaRkKGBvKSBuTCBtjELMAkGA1UEBhMCVVMxCzAJBgNVBAgTAkNB
MRUwEwYDVQQHEwxTYW5GcmFuY2lzY28xFTATBgNVBAoTDEZvcnQtRnVuc3RvbjEd
MBsGA1UECxMUTXlPcmdhbml6YXRpb25hbFVuaXQxGDAWBgNVBAMTD0ZvcnQtRnVu
c3RvbiBDQTEQMA4GA1UEKRMHRWFzeVJTQTEhMB8GCSqGSIb3DQEJARYSbWVAbXlo
b3N0Lm15ZG9tYWluggkAxqtsqzz70PUwEwYDVR0lBAwwCgYIKwYBBQUHAwEwCwYD
VR0PBAQDAgWgMA0GCSqGSIb3DQEBCwUAA4IBAQAEVhNRavWwqX26ab1oS2IOlnVv
s1JdXJkk0NfErcoPBRbgSgJBB6TBiLQ7Ttw/I10a0Qg/f1vd7hbCsIOahgnhuGAY
aCn9qTEKzYyneP6VTTmr+VH47KFmSwD7mX3aGUsFO66p4078bSEEnWEGSNEbZM7a
c/DpeCvp0VWHg+OEOJeuPXNjW2PN0aY224OfNgGT2UFrmPkObYD1H+zIXglPXta/
+p91hmHvcVG+GtrvahD9bL3yf+rlv4TpuizXrwc/zK3soYsU3Y7G+55KOsPdsztB
pCNuJCGE0Kh8kwirZ23tmAhSEA57X/CZgqftFYfuidafZIa/IXmuhn+1JN2P
-----END CERTIFICATE-----
