Certificate:
    Data:
        Version: 3 (0x2)
        Serial Number: 2 (0x2)
    Signature Algorithm: sha256WithRSAEncryption
        Issuer: C=US, ST=CA, L=SanFrancisco, O=Fort-Funston, OU=MyOrganizationalUnit, CN=Fort-Funston CA/name=EasyRSA/emailAddress=me@myhost.mydomain
        Validity
            Not Before: Nov 30 14:31:07 2020 GMT
            Not After : Nov 28 14:31:07 2030 GMT
        Subject: C=US, ST=CA, L=SanFrancisco, O=Fort-Funston, OU=MyOrganizationalUnit, CN=s/name=EasyRSA/emailAddress=me@myhost.mydomain
        Subject Public Key Info:
            Public Key Algorithm: rsaEncryption
                Public-Key: (2048 bit)
                Modulus:
                    00:b3:dd:60:b4:a8:00:fb:8b:45:24:52:43:00:0a:
                    f1:19:3f:d6:b8:b0:a4:a9:a6:1b:3f:7a:31:77:43:
                    3e:1c:a6:2e:65:33:69:fc:f5:53:6a:24:1c:d1:6c:
                    cf:e1:f1:ee:20:28:46:a1:7f:8b:ac:59:cc:ea:34:
                    cb:08:06:ac:46:62:72:81:d9:a5:da:c7:c9:4b:ff:
                    07:9a:dd:b5:2d:c5:35:5f:6f:83:7c:93:ca:6d:68:
                    78:94:3d:0e:27:65:44:c3:d7:07:5f:b4:00:76:99:
                    6e:b8:15:07:ab:c8:82:01:aa:4b:ae:3a:57:28:a8:
                    58:be:29:b8:47:ae:db:f2:46:2d:dd:8d:e2:40:ed:
                    d2:b6:7d:fc:a2:1f:06:b2:61:d8:26:2f:cf:28:ff:
                    b0:7c:9b:5d:3b:ed:73:46:b8:2b:10:b2:c4:de:d0:
                    06:ac:3d:a9:d2:9c:02:52:63:12:fa:fe:16:41:a0:
                    4e:20:26:49:a5:d9:d8:e6:a2:4e:f9:27:66:af:9d:
                    46:5d:08:2a:69:9b:95:29:75:5d:0a:61:67:14:3b:
                    60:dd:de:45:23:79:cc:9e:3a:df:4e:32:f7:2c:e4:
                    a1:c0:5d:86:c4:38:2c:2b:1c:18:80:78:5b:b3:df:
                    2d:01:66:f1:24:69:77:b0:89:7b:57:0e:4d:a9:e3:
                    8c:c5
                Exponent: 65537 (0x10001)
        X509v3 extensions:
            X509v3 Basic Constraints: 
                CA:FALSE
            Netscape Comment: 
                Easy-RSA Generated Certificate
            X509v3 Subject Key Identifier: 
                60:87:C1:70:79:EB:47:47:80:E7:01:41:E3:79:4C:11:B4:D7:10:2D
            X509v3 Authority Key Identifier: 
                keyid:31:FB:B3:98:31:A8:54:75:9D:58:BD:40:06:3D:BE:E1:E0:86:91:90
                DirName:/C=US/ST=CA/L=SanFrancisco/O=Fort-Funston/OU=MyOrganizationalUnit/CN=Fort-Funston CA/name=EasyRSA/emailAddress=me@myhost.mydomain
                serial:C6:AB:6C:AB:3C:FB:D0:F5

            X509v3 Extended Key Usage: 
                TLS Web Client Authentication
            X509v3 Key Usage: 
                Digital Signature
    Signature Algorithm: sha256WithRSAEncryption
         04:2b:9c:e6:3d:8d:d6:d4:30:07:a6:c0:54:8a:8d:a4:53:b4:
         99:01:ea:9c:b8:09:78:62:dc:55:46:ec:58:35:d0:7e:65:bb:
         10:61:9c:29:15:0e:85:fe:35:89:39:78:fb:6f:43:44:bf:7e:
         85:0b:3d:2e:ad:af:7d:2b:5f:8d:81:de:ad:d4:e4:ab:db:8c:
         7e:4f:6e:af:97:97:20:0b:b9:8e:78:8e:c9:0b:f8:31:39:35:
         d2:10:63:97:8d:fa:2c:d7:e0:a7:b2:b1:85:db:e7:c2:76:4a:
         49:8e:31:0e:ae:73:52:3c:ff:ce:d1:03:a4:0d:b1:1b:9f:07:
         be:e2:c5:0f:20:f9:e8:10:4c:a1:32:15:18:78:c4:f3:65:e9:
         1a:51:87:f2:d7:25:b3:4e:28:7d:8e:45:a1:76:36:c6:56:06:
         6b:6e:7e:0c:6a:63:4f:41:74:36:d3:41:e5:2d:27:f9:08:67:
         e3:79:90:06:c5:3d:c5:dd:ad:f5:45:d3:89:83:f3:7f:8c:e1:
         b9:54:f7:07:89:d0:8a:4a:ae:db:fa:75:a0:15:ea:ad:53:e1:
         b7:e0:95:71:4b:8f:43:5a:1a:1d:1f:5a:21:0e:d8:fb:c8:2a:
         05:c2:7c:a2:98:2b:3b:b2:6a:ee:ce:0f:14:de:2e:b3:bd:28:
         f9:a8:75:fd
-----BEGIN CERTIFICATE-----
MIIFSjCCBDKgAwIBAgIBAjANBgkqhkiG9w0BAQsFADCBtjELMAkGA1UEBhMCVVMx
CzAJBgNVBAgTAkNBMRUwEwYDVQQHEwxTYW5GcmFuY2lzY28xFTATBgNVBAoTDEZv
cnQtRnVuc3RvbjEdMBsGA1UECxMUTXlPcmdhbml6YXRpb25hbFVuaXQxGDAWBgNV
BAMTD0ZvcnQtRnVuc3RvbiBDQTEQMA4GA1UEKRMHRWFzeVJTQTEhMB8GCSqGSIb3
DQEJARYSbWVAbXlob3N0Lm15ZG9tYWluMB4XDTIwMTEzMDE0MzEwN1oXDTMwMTEy
ODE0MzEwN1owgagxCzAJBgNVBAYTAlVTMQswCQYDVQQIEwJDQTEVMBMGA1UEBxMM
U2FuRnJhbmNpc2NvMRUwEwYDVQQKEwxGb3J0LUZ1bnN0b24xHTAbBgNVBAsTFE15
T3JnYW5pemF0aW9uYWxVbml0MQowCAYDVQQDEwFzMRAwDgYDVQQpEwdFYXN5UlNB
MSEwHwYJKoZIhvcNAQkBFhJtZUBteWhvc3QubXlkb21haW4wggEiMA0GCSqGSIb3
DQEBAQUAA4IBDwAwggEKAoIBAQCz3WC0qAD7i0UkUkMACvEZP9a4sKSpphs/ejF3
Qz4cpi5lM2n89VNqJBzRbM/h8e4gKEahf4usWczqNMsIBqxGYnKB2aXax8lL/wea
3bUtxTVfb4N8k8ptaHiUPQ4nZUTD1wdftAB2mW64FQeryIIBqkuuOlcoqFi+KbhH
rtvyRi3djeJA7dK2ffyiHwayYdgmL88o/7B8m1077XNGuCsQssTe0AasPanSnAJS
YxL6/hZBoE4gJkml2djmok75J2avnUZdCCppm5UpdV0KYWcUO2Dd3kUjecyeOt9O
Mvcs5KHAXYbEOCwrHBiAeFuz3y0BZvEkaXewiXtXDk2p44zFAgMBAAGjggFtMIIB
aTAJBgNVHRMEAjAAMC0GCWCGSAGG+EIBDQQgFh5FYXN5LVJTQSBHZW5lcmF0ZWQg
Q2VydGlmaWNhdGUwHQYDVR0OBBYEFGCHwXB560dHgOcBQeN5TBG01xAtMIHrBgNV
HSMEgeMwgeCAFDH7s5gxqFR1nVi9QAY9vuHghpGQoYG8pIG5MIG2MQswCQYDVQQG
EwJVUzELMAkGA1UECBMCQ0ExFTATBgNVBAcTDFNhbkZyYW5jaXNjbzEVMBMGA1UE
ChMMRm9ydC1GdW5zdG9uMR0wGwYDVQQLExRNeU9yZ2FuaXphdGlvbmFsVW5pdDEY
MBYGA1UEAxMPRm9ydC1GdW5zdG9uIENBMRAwDgYDVQQpEwdFYXN5UlNBMSEwHwYJ
KoZIhvcNAQkBFhJtZUBteWhvc3QubXlkb21haW6CCQDGq2yrPPvQ9TATBgNVHSUE
DDAKBggrBgEFBQcDAjALBgNVHQ8EBAMCB4AwDQYJKoZIhvcNAQELBQADggEBAAQr
nOY9jdbUMAemwFSKjaRTtJkB6py4CXhi3FVG7Fg10H5luxBhnCkVDoX+NYk5ePtv
Q0S/foULPS6tr30rX42B3q3U5KvbjH5Pbq+XlyALuY54jskL+DE5NdIQY5eN+izX
4KeysYXb58J2SkmOMQ6uc1I8/87RA6QNsRufB77ixQ8g+egQTKEyFRh4xPNl6RpR
h/LXJbNOKH2ORaF2NsZWBmtufgxqY09BdDbTQeUtJ/kIZ+N5kAbFPcXdrfVF04mD
83+M4blU9weJ0IpKrtv6daAV6q1T4bfglXFLj0NaGh0fWiEO2PvIKgXCfKKYKzuy
au7ODxTeLrO9KPmodf0=
-----END CERTIFICATE-----
